target datalayout = "e-m:e-p270:32:32-p271:32:32-p272:64:64-i64:64-i128:128-f80:128-n8:16:32:64-S128"
target triple = "x86_64-unknown-linux-gnu"

%struct.ssl_st = type { i32, i16, i16, ptr, ptr, ptr, ptr, ptr, i32, i32, ptr, ptr, i32, i32, ptr, ptr, ptr, ptr, ptr, ptr, ptr, ptr, i32, i32, [32 x i8], ptr, ptr, ptr, ptr, ptr, ptr, ptr, i64, %struct.crypto_ex_data_st, ptr, i32, i32, i32, i32, i16, ptr, i32, i64, ptr, ptr, ptr, ptr, ptr, ptr, i32, i32, ptr, ptr, i8, i8, i32 }
%struct.crypto_ex_data_st = type { ptr }

; Function Attrs: nounwind uwtable
define hidden i32 @ssl3_get_req_cert_type(ptr noundef %ssl, ptr noundef %p) #0 {
entry:
  %ssl.addr = alloca ptr, align 8
  %p.addr = alloca ptr, align 8
  %ret = alloca i32, align 4
  %sig = alloca ptr, align 8
  %i = alloca i64, align 8
  %siglen = alloca i64, align 8
  %have_rsa_sign = alloca i32, align 4
  %have_ecdsa_sign = alloca i32, align 4
  store ptr %ssl, ptr %ssl.addr, align 8
  store ptr %p, ptr %p.addr, align 8
  store i32 0, ptr %ret, align 4
  store i32 0, ptr %have_rsa_sign, align 4
  store i32 0, ptr %have_ecdsa_sign, align 4
  %0 = load ptr, ptr %ssl.addr, align 8
  %call = call i64 @tls12_get_psigalgs(ptr noundef %0, ptr noundef %sig)
  store i64 %call, ptr %siglen, align 8
  store i64 0, ptr %i, align 8
  br label %for.cond

for.cond:                                         ; preds = %for.inc, %entry
  %1 = load i64, ptr %i, align 8
  %2 = load i64, ptr %siglen, align 8
  %cmp = icmp ult i64 %1, %2
  br i1 %cmp, label %for.body, label %for.end

for.body:                                         ; preds = %for.cond
  %3 = load ptr, ptr %sig, align 8
  %arrayidx = getelementptr inbounds i8, ptr %3, i64 1
  %4 = load i8, ptr %arrayidx, align 1
  %conv = zext i8 %4 to i32
  switch i32 %conv, label %sw.epilog [
    i32 1, label %sw.bb
    i32 3, label %sw.bb1
  ]

sw.bb:                                            ; preds = %for.body
  store i32 1, ptr %have_rsa_sign, align 4
  br label %sw.epilog

sw.bb1:                                           ; preds = %for.body
  store i32 1, ptr %have_ecdsa_sign, align 4
  br label %sw.epilog

sw.epilog:                                        ; preds = %sw.bb1, %sw.bb, %for.body
  br label %for.inc

for.inc:                                          ; preds = %sw.epilog
  %5 = load i64, ptr %i, align 8
  %add = add i64 %5, 2
  store i64 %add, ptr %i, align 8
  %6 = load ptr, ptr %sig, align 8
  %add.ptr = getelementptr inbounds i8, ptr %6, i64 2
  store ptr %add.ptr, ptr %sig, align 8
  br label %for.cond, !llvm.loop !9

for.end:                                          ; preds = %for.cond
  %7 = load i32, ptr %have_rsa_sign, align 4
  %tobool = icmp ne i32 %7, 0
  br i1 %tobool, label %if.then, label %if.end

if.then:                                          ; preds = %for.end
  %8 = load ptr, ptr %p.addr, align 8
  %9 = load i32, ptr %ret, align 4
  %inc = add nsw i32 %9, 1
  store i32 %inc, ptr %ret, align 4
  %idxprom = sext i32 %9 to i64
  %arrayidx2 = getelementptr inbounds i8, ptr %8, i64 %idxprom
  store i8 1, ptr %arrayidx2, align 1
  br label %if.end

if.end:                                           ; preds = %if.then, %for.end
  %10 = load ptr, ptr %ssl.addr, align 8
  %version = getelementptr inbounds %struct.ssl_st, ptr %10, i32 0, i32 0
  %11 = load i32, ptr %version, align 8
  %cmp3 = icmp sge i32 %11, 769
  br i1 %cmp3, label %land.lhs.true, label %if.end10

land.lhs.true:                                    ; preds = %if.end
  %12 = load i32, ptr %have_ecdsa_sign, align 4
  %tobool5 = icmp ne i32 %12, 0
  br i1 %tobool5, label %if.then6, label %if.end10

if.then6:                                         ; preds = %land.lhs.true
  %13 = load ptr, ptr %p.addr, align 8
  %14 = load i32, ptr %ret, align 4
  %inc7 = add nsw i32 %14, 1
  store i32 %inc7, ptr %ret, align 4
  %idxprom8 = sext i32 %14 to i64
  %arrayidx9 = getelementptr inbounds i8, ptr %13, i64 %idxprom8
  store i8 64, ptr %arrayidx9, align 1
  br label %if.end10

if.end10:                                         ; preds = %if.then6, %land.lhs.true, %if.end
  %15 = load i32, ptr %ret, align 4
  ret i32 %15
}