; Function Attrs: nounwind uwtable
define hidden range(i32 0, 3) i32 @ssl3_get_req_cert_type(ptr noundef %ssl, ptr noundef writeonly captures(none) %p) local_unnamed_addr #1 {
entry:
  %sig = alloca ptr, align 8
  %call = call i64 @tls12_get_psigalgs(ptr noundef %ssl, ptr noundef nonnull %sig) #14
  %cmp7.not = icmp eq i64 %call, 0
  br i1 %cmp7.not, label %if.end10, label %for.body.preheader

for.body.preheader:                               ; preds = %entry
  %sig.promoted = load ptr, ptr %sig, align 8
  br label %for.body.outer

for.body.outer:                                   ; preds = %for.body.preheader, %for.inc
  %have_ecdsa_sign.011.ph = phi i32 [ 0, %for.body.preheader ], [ %have_ecdsa_sign.1, %for.inc ]
  %have_rsa_sign.010.ph = phi i32 [ 0, %for.body.preheader ], [ %have_rsa_sign.010, %for.inc ]
  %i.09.ph = phi i64 [ 0, %for.body.preheader ], [ %add, %for.inc ]
  %add.ptr68.ph = phi ptr [ %sig.promoted, %for.body.preheader ], [ %add.ptr, %for.inc ]
  br label %for.body

for.body:                                         ; preds = %for.body.outer, %for.inc.thread
  %have_rsa_sign.010 = phi i32 [ 1, %for.inc.thread ], [ %have_rsa_sign.010.ph, %for.body.outer ]
  %i.09 = phi i64 [ %add18, %for.inc.thread ], [ %i.09.ph, %for.body.outer ]
  %add.ptr68 = phi ptr [ %add.ptr19, %for.inc.thread ], [ %add.ptr68.ph, %for.body.outer ]
  %arrayidx = getelementptr inbounds nuw i8, ptr %add.ptr68, i64 1
  %0 = load i8, ptr %arrayidx, align 1
  switch i8 %0, label %for.inc.loopexit [
    i8 1, label %for.inc.thread
    i8 3, label %for.inc
  ]

for.inc.loopexit:                                 ; preds = %for.body
  br label %for.inc

for.inc:                                          ; preds = %for.body, %for.inc.loopexit
  %have_ecdsa_sign.1 = phi i32 [ %have_ecdsa_sign.011.ph, %for.inc.loopexit ], [ 1, %for.body ]
  %add = add nuw i64 %i.09, 2
  %add.ptr = getelementptr inbounds nuw i8, ptr %add.ptr68, i64 2
  store ptr %add.ptr, ptr %sig, align 8
  %cmp = icmp ult i64 %add, %call
  br i1 %cmp, label %for.body.outer, label %for.end, !llvm.loop !9

for.inc.thread:                                   ; preds = %for.body
  %add18 = add nuw i64 %i.09, 2
  %add.ptr19 = getelementptr inbounds nuw i8, ptr %add.ptr68, i64 2
  store ptr %add.ptr19, ptr %sig, align 8
  %cmp20 = icmp ult i64 %add18, %call
  br i1 %cmp20, label %for.body, label %for.end.thread23, !llvm.loop !9

for.end.thread23:                                 ; preds = %for.inc.thread
  %1 = icmp ne i32 %have_ecdsa_sign.011.ph, 0
  br label %if.then

for.end:                                          ; preds = %for.inc
  %2 = icmp eq i32 %have_rsa_sign.010, 0
  %3 = icmp ne i32 %have_ecdsa_sign.1, 0
  br i1 %2, label %if.end, label %if.then

if.then:                                          ; preds = %for.end.thread23, %for.end
  %4 = phi i1 [ %1, %for.end.thread23 ], [ %3, %for.end ]
  store i8 1, ptr %p, align 1
  br label %if.end

if.end:                                           ; preds = %if.then, %for.end
  %have_ecdsa_sign.0.lcssa15 = phi i1 [ %4, %if.then ], [ %3, %for.end ]
  %ret.0 = phi i32 [ 1, %if.then ], [ 0, %for.end ]
  %5 = load i32, ptr %ssl, align 8
  %cmp3 = icmp sgt i32 %5, 768
  %or.cond = select i1 %cmp3, i1 %have_ecdsa_sign.0.lcssa15, i1 false
  br i1 %or.cond, label %if.then6, label %if.end10

if.then6:                                         ; preds = %if.end
  %inc7 = add nuw nsw i32 %ret.0, 1
  %idxprom8 = zext nneg i32 %ret.0 to i64
  %arrayidx9 = getelementptr inbounds nuw i8, ptr %p, i64 %idxprom8
  store i8 64, ptr %arrayidx9, align 1
  br label %if.end10

if.end10:                                         ; preds = %entry, %if.then6, %if.end
  %ret.1 = phi i32 [ %inc7, %if.then6 ], [ %ret.0, %if.end ], [ 0, %entry ]
  ret i32 %ret.1
}